target datalayout = "e-m:e-p270:32:32-p271:32:32-p272:64:64-i64:64-i128:128-f80:128-n8:16:32:64-S128"
target triple = "x86_64-pc-linux-gnu"

@hf_ieee802154_hie_csl = internal global i32 0, align 4
@hf_ieee802154_hie_csl_phase = internal global i32 0, align 4
@hf_ieee802154_hie_csl_period = internal global i32 0, align 4
@hf_ieee802154_hie_csl_rendezvous_time = internal global i32 0, align 4
@ett_ieee802154_hie_csl = internal global i32 0, align 4

; Function Attrs: null_pointer_is_valid sspstrong uwtable
define internal i32 @dissect_hie_csl(ptr noundef %0, ptr noundef %1, ptr noundef %2, ptr noundef %3) #0 {
  %5 = alloca i32, align 4
  %6 = alloca ptr, align 8
  %7 = alloca ptr, align 8
  %8 = alloca ptr, align 8
  %9 = alloca ptr, align 8
  %10 = alloca ptr, align 8
  %11 = alloca i32, align 4
  store ptr %0, ptr %6, align 8
  store ptr %1, ptr %7, align 8
  store ptr %2, ptr %8, align 8
  store ptr %3, ptr %9, align 8
  call void @llvm.lifetime.start.p0(i64 8, ptr %10) #17
  %12 = load ptr, ptr %6, align 8
  %13 = load ptr, ptr %8, align 8
  %14 = load i32, ptr @hf_ieee802154_hie_csl, align 4
  %15 = load i32, ptr @ett_ieee802154_hie_csl, align 4
  %16 = call ptr @ieee802154_create_hie_tree(ptr noundef %12, ptr noundef %13, i32 noundef %14, i32 noundef %15)
  store ptr %16, ptr %10, align 8
  %17 = load ptr, ptr %10, align 8
  %18 = load i32, ptr @hf_ieee802154_hie_csl_phase, align 4
  %19 = load ptr, ptr %6, align 8
  %20 = call ptr @proto_tree_add_item(ptr noundef %17, i32 noundef %18, ptr noundef %19, i32 noundef 2, i32 noundef 2, i32 noundef -2147483648)
  %21 = load ptr, ptr %10, align 8
  %22 = load i32, ptr @hf_ieee802154_hie_csl_period, align 4
  %23 = load ptr, ptr %6, align 8
  %24 = call ptr @proto_tree_add_item(ptr noundef %21, i32 noundef %22, ptr noundef %23, i32 noundef 4, i32 noundef 2, i32 noundef -2147483648)
  %25 = load ptr, ptr %6, align 8
  %26 = call i32 @tvb_reported_length(ptr noundef %25)
  %27 = icmp uge i32 %26, 8
  br i1 %27, label %28, label %33

28:                                               ; preds = %4
  %29 = load ptr, ptr %10, align 8
  %30 = load i32, ptr @hf_ieee802154_hie_csl_rendezvous_time, align 4
  %31 = load ptr, ptr %6, align 8
  %32 = call ptr @proto_tree_add_item(ptr noundef %29, i32 noundef %30, ptr noundef %31, i32 noundef 6, i32 noundef 2, i32 noundef -2147483648)
  store i32 8, ptr %5, align 4
  store i32 1, ptr %11, align 4
  br label %34

33:                                               ; preds = %4
  store i32 6, ptr %5, align 4
  store i32 1, ptr %11, align 4
  br label %34

34:                                               ; preds = %33, %28
  call void @llvm.lifetime.end.p0(i64 8, ptr %10) #17
  %35 = load i32, ptr %5, align 4
  ret i32 %35
}