; Function Attrs: null_pointer_is_valid sspstrong uwtable
define internal range(i32 6, 9) i32 @dissect_hie_csl(ptr noundef %0, ptr readnone captures(none) %1, ptr noundef %2, ptr readnone captures(none) %3) #0 {
  %5 = load i32, ptr @hf_ieee802154_hie_csl, align 4
  %6 = load i32, ptr @ett_ieee802154_hie_csl, align 4
  %7 = tail call ptr @ieee802154_create_hie_tree(ptr noundef %0, ptr noundef %2, i32 noundef %5, i32 noundef %6)
  %8 = load i32, ptr @hf_ieee802154_hie_csl_phase, align 4
  %9 = tail call ptr @proto_tree_add_item(ptr noundef %7, i32 noundef %8, ptr noundef %0, i32 noundef 2, i32 noundef 2, i32 noundef -2147483648)
  %10 = load i32, ptr @hf_ieee802154_hie_csl_period, align 4
  %11 = tail call ptr @proto_tree_add_item(ptr noundef %7, i32 noundef %10, ptr noundef %0, i32 noundef 4, i32 noundef 2, i32 noundef -2147483648)
  %12 = tail call i32 @tvb_reported_length(ptr noundef %0)
  %13 = icmp ugt i32 %12, 7
  br i1 %13, label %14, label %17

14:                                               ; preds = %4
  %15 = load i32, ptr @hf_ieee802154_hie_csl_rendezvous_time, align 4
  %16 = tail call ptr @proto_tree_add_item(ptr noundef %7, i32 noundef %15, ptr noundef %0, i32 noundef 6, i32 noundef 2, i32 noundef -2147483648)
  br label %17

17:                                               ; preds = %4, %14
  %.0 = phi i32 [ 8, %14 ], [ 6, %4 ]
  ret i32 %.0
}